cpersistence._persistence
simple_new
p1
(cmagot.model
Account
p2
tRp3
(dp4
S'name'
p5
S'root'
p6
sS'subAccounts'
p7
(lp8
g1
(cmagot.model
EntryAccount
p9
tRp10
(dp11
S'type'
p12
cmagot.refdata
MovementType
p13
(S'CREDIT'
p14
tRp15
sg5
S'equity'
p16
sS'parent'
p17
g3
sS'entries'
p18
(lp19
g1
(cmagot.model
Entry
p20
tRp21
(dp22
S'amount'
p23
ccopy_reg
_reconstructor
p24
(cmagot.refdata
Money
p25
c__builtin__
object
p26
NtRp27
(dp28
S'currency'
p29
cmagot.refdata
Currency
p30
(S'EUR'
p31
tRp32
sS'amount'
p33
cdecimal
Decimal
p34
(S'2'
tRp35
sbsS'transaction'
p36
g1
(cmagot.model
Transaction
p37
tRp38
(dp39
S'date'
p40
cdatetime
date
p41
(S'\x07\xd5\x01\x01'
tRp42
sS'entries'
p43
(lp44
g1
(g20
tRp45
(dp46
g23
g27
sg36
g38
sS'type'
p47
g13
(S'DEBIT'
p48
tRp49
sS'account'
p50
g1
(g9
tRp51
(dp52
g12
g49
sg5
S'computer'
p53
sg17
g1
(g9
tRp54
(dp55
g12
g49
sg5
S'asset'
p56
sg17
g3
sg7
(lp57
g1
(g9
tRp58
(dp59
g12
g49
sg5
S'checking'
p60
sg17
g54
sg18
(lp61
g1
(g20
tRp62
(dp63
g23
g24
(g25
g26
NtRp64
(dp65
g29
g32
sg33
g34
(S'1'
tRp66
sbsg36
g1
(g37
tRp67
(dp68
g40
g41
(S'\x07\xd5\x02\x01'
tRp69
sg43
(lp70
g62
ag1
(g20
tRp71
(dp72
g23
g64
sg36
g67
sg47
g15
sg50
g10
sbasS'number'
p73
I4
sS'description'
p74
Vbbb
p75
sbsg47
g49
sg50
g58
sbasbag51
asbsg18
(lp76
g45
asbsbag21
asg73
I1
sg74
Vzzz
p77
sbsg47
g15
sg50
g10
sbag1
(g20
tRp78
(dp79
g23
g24
(g25
g26
NtRp80
(dp81
g29
g32
sg33
g34
(S'3'
tRp82
sbsg36
g1
(g37
tRp83
(dp84
g40
g41
(S'\x07\xd5\x01\x01'
tRp85
sg43
(lp86
g1
(g20
tRp87
(dp88
g23
g80
sg36
g83
sg47
g49
sg50
g1
(g9
tRp89
(dp90
g12
g49
sg5
S'warranty'
p91
sg17
g1
(g9
tRp92
(dp93
g12
g49
sg5
S'expense'
p94
sg17
g3
sg7
(lp95
g89
ag1
(g9
tRp96
(dp97
g12
g49
sg5
S'cash'
p98
sg17
g92
sg18
(lp99
g1
(g20
tRp100
(dp101
g23
g24
(g25
g26
NtRp102
(dp103
g29
g32
sg33
g34
(S'4'
tRp104
sbsg36
g1
(g37
tRp105
(dp106
g40
g41
(S'\x07\xd5\x02\x01'
tRp107
sg43
(lp108
g100
ag1
(g20
tRp109
(dp110
g23
g102
sg36
g105
sg47
g15
sg50
g10
sbasg73
I5
sg74
Vccc
p111
sbsg47
g49
sg50
g96
sbasbasbsg18
(lp112
g87
asbsbag78
asg73
I2
sg74
Vaaa
p113
sbsg47
g15
sg50
g10
sbag1
(g20
tRp114
(dp115
g23
g24
(g25
g26
NtRp116
(dp117
g29
g32
sg33
g34
(S'100.5'
tRp118
sbsg36
g1
(g37
tRp119
(dp120
S'date'
p121
g41
(S'\x07\xd5\x01\x01'
tRp122
sg43
(lp123
g114
ag1
(g20
tRp124
(dp125
g23
g116
sg36
g119
sg47
g15
sS'account'
p126
g1
(g9
tRp127
(dp128
g12
g15
sg5
S'salary'
p129
sg17
g1
(g9
tRp130
(dp131
g12
g15
sg5
S'income'
p132
sg17
g3
sg7
(lp133
g127
asbsg18
(lp134
g124
asbsbasg73
I3
sg74
Vddd
p135
sbsg47
g49
sg126
g10
sbag71
ag109
asbag54
ag92
ag130
ag1
(g9
tRp136
(dp137
g12
g15
sg5
S'liability'
p138
sg17
g3
sg7
(lp139
g1
(g9
tRp140
(dp141
g12
g15
sg5
S'loan'
p142
sg17
g136
sbasbasb.