cpersistence._persistence
simple_new
p1
(cmagot.model
SummaryAccount
p2
tRp3
(dp4
S'name'
p5
S'root'
p6
sS'subAccounts'
p7
(lp8
g1
(g2
tRp9
(dp10
S'type'
p11
cmagot.refdata
MovementType
p12
(S'DEBIT'
p13
tRp14
sg5
S'asset'
p15
sS'parent'
p16
g3
sg7
(lp17
g1
(cmagot.model
DetailAccount
p18
tRp19
(dp20
g11
g14
sg5
S'checking'
p21
sg16
g9
sS'entries'
p22
(lp23
g1
(cmagot.model
Entry
p24
tRp25
(dp26
S'amount'
p27
ccopy_reg
_reconstructor
p28
(cmagot.refdata
Money
p29
c__builtin__
object
p30
NtRp31
(dp32
S'currency'
p33
cmagot.refdata
Currency
p34
(S'EUR'
p35
tRp36
sS'amount'
p37
cdecimal
Decimal
p38
(S'1'
tRp39
sbsS'transaction'
p40
g1
(cmagot.model
Transaction
p41
tRp42
(dp43
S'date'
p44
cdatetime
date
p45
(S'\x07\xd5\x02\x01'
tRp46
sS'description'
p47
S'initial balance'
p48
sS'entries'
p49
(lp50
g25
ag1
(g24
tRp51
(dp52
g27
g31
sg40
g42
sS'type'
p53
g12
(S'CREDIT'
p54
tRp55
sS'account'
p56
g1
(g18
tRp57
(dp58
g11
g55
sg5
S'equity'
p59
sg16
g3
sg22
(lp60
g1
(g24
tRp61
(dp62
g27
g28
(g29
g30
NtRp63
(dp64
g33
g36
sg37
g38
(S'2'
tRp65
sbsg40
g1
(g41
tRp66
(dp67
g44
g45
(S'\x07\xd5\x01\x01'
tRp68
sg47
g48
sg49
(lp69
g1
(g24
tRp70
(dp71
g27
g63
sg40
g66
sg53
g14
sg56
g1
(g18
tRp72
(dp73
g11
g14
sg5
S'computer'
p74
sg16
g9
sg22
(lp75
g70
asbsbag61
asbsg53
g55
sg56
g57
sbag1
(g24
tRp76
(dp77
g27
g28
(g29
g30
NtRp78
(dp79
g33
g36
sg37
g38
(S'3'
tRp80
sbsg40
g1
(g41
tRp81
(dp82
g44
g45
(S'\x07\xd5\x01\x01'
tRp83
sg47
g48
sg49
(lp84
g1
(g24
tRp85
(dp86
g27
g78
sg40
g81
sg53
g14
sg56
g1
(g18
tRp87
(dp88
g11
g14
sg5
S'warranty'
p89
sg16
g1
(g2
tRp90
(dp91
g11
g14
sg5
S'expense'
p92
sg16
g3
sg7
(lp93
g87
ag1
(g18
tRp94
(dp95
g11
g14
sg5
S'cash'
p96
sg16
g90
sg22
(lp97
g1
(g24
tRp98
(dp99
g27
g28
(g29
g30
NtRp100
(dp101
g33
g36
sg37
g38
(S'4'
tRp102
sbsg40
g1
(g41
tRp103
(dp104
g44
g45
(S'\x07\xd5\x02\x01'
tRp105
sg47
g48
sg49
(lp106
g98
ag1
(g24
tRp107
(dp108
g27
g100
sg40
g103
sg53
g55
sg56
g57
sbasbsg53
g14
sg56
g94
sbasbasbsg22
(lp109
g85
asbsbag76
asbsg53
g55
sg56
g57
sbag1
(g24
tRp110
(dp111
g27
g28
(g29
g30
NtRp112
(dp113
g33
g36
sg37
g38
(S'100.5'
tRp114
sbsg40
g1
(g41
tRp115
(dp116
g44
g45
(S'\x07\xd5\x01\x01'
tRp117
sg47
g48
sg49
(lp118
g110
ag1
(g24
tRp119
(dp120
g27
g112
sg40
g115
sg53
g55
sg56
g1
(g18
tRp121
(dp122
g11
g55
sg5
S'salary'
p123
sg16
g1
(g2
tRp124
(dp125
g11
g55
sg5
S'income'
p126
sg16
g3
sg7
(lp127
g121
asbsg22
(lp128
g119
asbsbasbsg53
g14
sg56
g57
sbag51
ag107
asbsbasbsg53
g14
sg56
g19
sbasbag72
asbag90
ag124
ag1
(g2
tRp129
(dp130
g11
g55
sg5
S'liability'
p131
sg16
g3
sg7
(lp132
g1
(g18
tRp133
(dp134
g11
g55
sg5
S'loan'
p135
sg16
g129
sbasbag57
asb.