cpersistence._persistence
simple_new
p1
(cmagot.model
Account
p2
tRp3
(dp4
S'name'
p5
S'root'
p6
sS'subAccounts'
p7
(lp8
g1
(cmagot.model
EntryAccount
p9
tRp10
(dp11
S'type'
p12
cmagot.refdata
MovementType
p13
(S'DEBIT'
p14
tRp15
sg5
S'Assets'
p16
sS'parent'
p17
g3
sg7
(lp18
g1
(g9
tRp19
(dp20
g12
g15
sg7
(lp21
g1
(g9
tRp22
(dp23
g12
g15
sg5
S'Raw Materials'
p24
sg17
g19
sS'entries'
p25
(lp26
g1
(cmagot.model
Entry
p27
tRp28
(dp29
S'amount'
p30
ccopy_reg
_reconstructor
p31
(cmagot.refdata
Money
p32
c__builtin__
object
p33
NtRp34
(dp35
S'currency'
p36
cmagot.refdata
Currency
p37
(S'EUR'
p38
tRp39
sS'amount'
p40
cdecimal
Decimal
p41
(S'825000'
tRp42
sbsS'transaction'
p43
g1
(cmagot.model
Transaction
p44
tRp45
(dp46
S'date'
p47
cmagot.refdata
Date
p48
(S'\x07\xd5\x02\x01'
tRp49
sS'description'
p50
S'initial balance'
p51
sS'entries'
p52
(lp53
g28
ag1
(g27
tRp54
(dp55
g30
g34
sg43
g45
sS'type'
p56
g13
(S'CREDIT'
p57
tRp58
sS'account'
p59
g1
(g9
tRp60
(dp61
g12
g58
sg5
S'Capital'
p62
sg17
g1
(g9
tRp63
(dp64
g12
g58
sg5
S"Owners' Equity"
p65
sg17
g3
sg7
(lp66
g60
ag1
(g9
tRp67
(dp68
g12
g58
sg5
S'Retained Earnings'
p69
sg17
g63
sbasbsg25
(lp70
g1
(g27
tRp71
(dp72
g30
g31
(g32
g33
NtRp73
(dp74
g36
g39
sg40
g41
(S'500000'
tRp75
sbsg43
g1
(g44
tRp76
(dp77
g47
g48
(S'\x07\xd5\x02\x01'
tRp78
sg50
g51
sg52
(lp79
g1
(g27
tRp80
(dp81
g30
g73
sg43
g76
sg56
g15
sg59
g1
(g9
tRp82
(dp83
g12
g15
sg5
S'Cash'
p84
sg17
g1
(g9
tRp85
(dp86
g12
g15
sg7
(lp87
g82
ag1
(g9
tRp88
(dp89
g12
g15
sg5
S'T-Bills'
p90
sg17
g85
sg25
(lp91
g1
(g27
tRp92
(dp93
g30
g31
(g32
g33
NtRp94
(dp95
g36
g39
sg40
g41
(S'1000000'
tRp96
sbsg43
g1
(g44
tRp97
(dp98
g47
g48
(S'\x07\xd5\x02\x01'
tRp99
sg50
g51
sg52
(lp100
g92
ag1
(g27
tRp101
(dp102
g30
g94
sg43
g97
sg56
g58
sg59
g60
sbasbsg56
g15
sg59
g88
sbasbag1
(g9
tRp103
(dp104
g12
g15
sg5
S'Accounts Receivable'
p105
sg17
g85
sg25
(lp106
g1
(g27
tRp107
(dp108
g30
g31
(g32
g33
NtRp109
(dp110
g36
g39
sg40
g41
(S'7000000'
tRp111
sbsg43
g1
(g44
tRp112
(dp113
g47
g48
(S'\x07\xd5\x02\x01'
tRp114
sg50
g51
sg52
(lp115
g107
ag1
(g27
tRp116
(dp117
g30
g109
sg43
g112
sg56
g58
sg59
g60
sbasbsg56
g15
sg59
g103
sbasbasS'parent'
p118
g1
(g9
tRp119
(dp120
g12
g58
sg5
S"Liabilitie and Owners' Equity"
p121
sg17
g3
sg7
(lp122
g1
(g9
tRp123
(dp124
g12
g58
sg7
(lp125
g1
(g9
tRp126
(dp127
g12
g58
sg5
S'Accounts Payable'
p128
sg17
g123
sbag1
(g9
tRp129
(dp130
g12
g58
sg5
S'Dividend Payable'
p131
sg17
g123
sbag1
(g9
tRp132
(dp133
g12
g58
sg5
S'Taxes Payable'
p134
sg17
g123
sbasg17
g119
sg5
S'Short-Term liabilities'
p135
sbag1
(g9
tRp136
(dp137
g12
g58
sg7
(lp138
g1
(g9
tRp139
(dp140
g12
g58
sg5
S'Bank Loans'
p141
sg17
g136
sbasg17
g119
sg5
S'Long-Term liabilities'
p142
sbag85
asbsg5
S'Current assets'
p143
sbsg25
(lp144
g80
asbsbag71
asbsg56
g58
sg59
g60
sbag101
ag116
ag54
ag1
(g27
tRp145
(dp146
g30
g31
(g32
g33
NtRp147
(dp148
g36
g39
sg40
g41
(S'750000'
tRp149
sbsg43
g1
(g44
tRp150
(dp151
g47
g48
(S'\x07\xd5\x02\x01'
tRp152
sg50
g51
sg52
(lp153
g1
(g27
tRp154
(dp155
g30
g147
sg43
g150
sg56
g15
sg59
g1
(g9
tRp156
(dp157
g12
g15
sg5
S'Work-in-progress'
p158
sg17
g19
sg25
(lp159
g154
asbsbag145
asbsg56
g58
sg59
g60
sbag1
(g27
tRp160
(dp161
g30
g31
(g32
g33
NtRp162
(dp163
g36
g39
sg40
g41
(S'1200000'
tRp164
sbsg43
g1
(g44
tRp165
(dp166
g47
g48
(S'\x07\xd5\x02\x01'
tRp167
sg50
g51
sg52
(lp168
g1
(g27
tRp169
(dp170
g30
g162
sg43
g165
sg56
g15
sg59
g1
(g9
tRp171
(dp172
g12
g15
sg5
S'Finished Goods'
p173
sg17
g19
sg25
(lp174
g169
asbsbag160
asbsg56
g58
sg59
g60
sbag1
(g27
tRp175
(dp176
g30
g31
(g32
g33
NtRp177
(dp178
g36
g39
sg40
g41
(S'30000000'
tRp179
sbsg43
g1
(g44
tRp180
(dp181
g47
g48
(S'\x07\xd5\x02\x01'
tRp182
sg50
g51
sg52
(lp183
g1
(g27
tRp184
(dp185
g30
g177
sg43
g180
sg56
g15
sg59
g1
(g9
tRp186
(dp187
g12
g15
sg5
S'Land'
p188
sg17
g1
(g9
tRp189
(dp190
g12
g15
sg7
(lp191
g186
ag1
(g9
tRp192
(dp193
g12
g15
sg5
S'Machinery'
p194
sg17
g189
sg25
(lp195
g1
(g27
tRp196
(dp197
g30
g31
(g32
g33
NtRp198
(dp199
g36
g39
sg40
g41
(S'20000000'
tRp200
sbsg43
g1
(g44
tRp201
(dp202
g47
g48
(S'\x07\xd5\x02\x01'
tRp203
sg50
g51
sg52
(lp204
g196
ag1
(g27
tRp205
(dp206
g30
g198
sg43
g201
sg56
g58
sg59
g60
sbasbsg56
g15
sg59
g192
sbasbag1
(g9
tRp207
(dp208
g12
g58
sg5
S'Depreciation'
p209
sg17
g189
sg25
(lp210
g1
(g27
tRp211
(dp212
g30
g31
(g32
g33
NtRp213
(dp214
g36
g39
sg40
g41
(S'5000000'
tRp215
sbsg43
g1
(g44
tRp216
(dp217
g47
g48
(S'\x07\xd5\x02\x01'
tRp218
sg50
g51
sg52
(lp219
g1
(g27
tRp220
(dp221
g30
g213
sg43
g216
sg56
g15
sg59
g60
sbag211
asbsg56
g58
sg59
g207
sbasbag1
(g9
tRp222
(dp223
g12
g15
sg5
S'Patents'
p224
sg17
g189
sg25
(lp225
g1
(g27
tRp226
(dp227
g30
g31
(g32
g33
NtRp228
(dp229
g36
g39
sg40
g41
(S'1000000'
tRp230
sbsg43
g1
(g44
tRp231
(dp232
g47
g48
(S'\x07\xd5\x02\x01'
tRp233
sg50
g51
sg52
(lp234
g226
ag1
(g27
tRp235
(dp236
g30
g228
sg43
g231
sg56
g58
sg59
g60
sbasbsg56
g15
sg59
g222
sbasbasg17
g10
sg5
S'Long-Term assets'
p237
sbsg25
(lp238
g184
asbsbag175
asbsg56
g58
sg59
g60
sbag205
ag220
ag235
asbsbasbsg56
g15
sg59
g22
sbasbag156
ag171
asg17
g10
sg5
S'Inventory'
p239
sbag189
asbag1
(g9
tRp240
(dp241
g12
g15
sg5
S'Expenses'
p242
sg17
g3
sg7
(lp243
g1
(g9
tRp244
(dp245
g12
g15
sg5
S'Warranty'
p246
sg17
g240
sbasbag119
ag63
ag1
(g9
tRp247
(dp248
g12
g58
sg5
S'Income'
p249
sg17
g3
sg7
(lp250
g1
(g9
tRp251
(dp252
g12
g58
sg5
S'Salaries'
p253
sg17
g247
sbasbasb.