cpersistence._persistence
simple_new
p0
(cmagot.model
SummaryAccount
p1
tp2
Rp3
(dp4
S'name'
p5
S'root'
p6
sS'subAccounts'
p7
(lp8
g0
(g1
tp9
Rp10
(dp11
S'type'
p12
cmagot.refdata
MovementType
p13
(S'DEBIT'
p14
tp15
Rp16
sg5
S'asset'
p17
sS'parent'
p18
g3
sg7
(lp19
g0
(cmagot.model
DetailAccount
p20
tp21
Rp22
(dp23
g12
g16
sg5
S'checking'
p24
sg18
g10
sS'entries'
p25
(lp26
g0
(cmagot.model
Entry
p27
tp28
Rp29
(dp30
S'amount'
p31
ccopy_reg
_reconstructor
p32
(cmagot.refdata
Money
p33
c__builtin__
object
p34
Ntp35
Rp36
(dp37
S'currency'
p38
cmagot.refdata
Currency
p39
(S'EUR'
p40
tp41
Rp42
sS'amount'
p43
cdecimal
Decimal
p44
(S'94.5'
p45
tp46
Rp47
sS'_hashAndCompare'
p48
(g47
g42
tp49
sbsS'transaction'
p50
g0
(cmagot.model
Transaction
p51
tp52
Rp53
(dp54
S'date'
p55
cdatetime
date
p56
(S'\x07\xd5\x01\x01'
p57
tp58
Rp59
sS'number'
p60
I9
sS'description'
p61
S'hhh'
p62
sS'entries'
p63
(lp64
g29
ag0
(g27
tp65
Rp66
(dp67
g31
g36
sg50
g53
sS'type'
p68
g13
(S'CREDIT'
p69
tp70
Rp71
sS'account'
p72
g0
(g20
tp73
Rp74
(dp75
g12
g71
sg5
S'equity'
p76
sg18
g3
sg25
(lp77
g0
(g27
tp78
Rp79
(dp80
S'amount'
p81
g32
(g33
g34
Ntp82
Rp83
(dp84
S'currency'
p85
g42
sS'amount'
p86
g44
(S'2'
p87
tp88
Rp89
sbsg50
g0
(g51
tp90
Rp91
(dp92
S'date'
p93
g56
(S'\x07\xd5\x01\x01'
p94
tp95
Rp96
sS'description'
p97
S'initial balance'
p98
sg63
(lp99
g0
(g27
tp100
Rp101
(dp102
g81
g83
sg50
g91
sg68
g16
sS'account'
p103
g0
(g20
tp104
Rp105
(dp106
g12
g16
sg5
S'computer'
p107
sg18
g10
sg25
(lp108
g101
asbsbag79
asbsg68
g71
sg103
g74
sbag0
(g27
tp109
Rp110
(dp111
g81
g32
(g33
g34
Ntp112
Rp113
(dp114
g85
g42
sg86
g44
(S'100.5'
p115
tp116
Rp117
sbsg50
g0
(g51
tp118
Rp119
(dp120
S'date'
p121
g56
(S'\x07\xd5\x01\x01'
p122
tp123
Rp124
sg97
g98
sg63
(lp125
g110
ag0
(g27
tp126
Rp127
(dp128
g81
g113
sg50
g119
sg68
g71
sS'account'
p129
g0
(g20
tp130
Rp131
(dp132
g12
g71
sg5
S'salary'
p133
sg18
g0
(g1
tp134
Rp135
(dp136
g12
g71
sg5
S'income'
p137
sg18
g3
sg7
(lp138
g131
asbsg25
(lp139
g127
asbsbasbsg68
g16
sg129
g74
sbag0
(g27
tp140
Rp141
(dp142
g81
g32
(g33
g34
Ntp143
Rp144
(dp145
g85
g42
sg86
g44
(S'4'
p146
tp147
Rp148
sbsg50
g0
(g51
tp149
Rp150
(dp151
g121
g56
(S'\x07\xd5\x01\x01'
p152
tp153
Rp154
sg97
g98
sg63
(lp155
g0
(g27
tp156
Rp157
(dp158
g81
g144
sg50
g150
sg68
g16
sg129
g0
(g20
tp159
Rp160
(dp161
g12
g16
sg5
S'cash'
p162
sg18
g0
(g1
tp163
Rp164
(dp165
g12
g16
sg5
S'expense'
p166
sg18
g3
sg7
(lp167
g0
(g20
tp168
Rp169
(dp170
g12
g16
sg5
S'warranty'
p171
sg18
g164
sg25
(lp172
g0
(g27
tp173
Rp174
(dp175
g81
g32
(g33
g34
Ntp176
Rp177
(dp178
g85
g42
sg86
g44
(S'3'
p179
tp180
Rp181
sbsg50
g0
(g51
tp182
Rp183
(dp184
g121
g56
(S'\x07\xd5\x02\x01'
p185
tp186
Rp187
sg97
g98
sg63
(lp188
g174
ag0
(g27
tp189
Rp190
(dp191
g81
g177
sg50
g183
sg68
g71
sg129
g74
sbasbsg68
g16
sg129
g169
sbasbag160
asbsg25
(lp192
g157
asbsbag141
asbsg68
g71
sg129
g74
sbag66
ag190
asbsbasbsg68
g16
sg72
g22
sbasbag105
asbag164
ag135
ag0
(g1
tp193
Rp194
(dp195
g12
g71
sg5
S'liability'
p196
sg18
g3
sg7
(lp197
g0
(g20
tp198
Rp199
(dp200
g12
g71
sg5
S'loan'
p201
sg18
g194
sbasbag74
asb.