cpersistence._persistence
simple_new
p0
(cmagot.model
SummaryAccount
p1
tp2
Rp3
(dp4
S'name'
p5
S'root'
p6
sS'subAccounts'
p7
(lp8
g0
(g1
tp9
Rp10
(dp11
S'type'
p12
cmagot.refdata
MovementType
p13
(S'DEBIT'
p14
tp15
Rp16
sg5
S'asset'
p17
sS'parent'
p18
g3
sg7
(lp19
g0
(cmagot.model
DetailAccount
p20
tp21
Rp22
(dp23
g12
g16
sg5
S'checking'
p24
sg18
g10
sS'entries'
p25
(lp26
g0
(cmagot.model
Entry
p27
tp28
Rp29
(dp30
S'amount'
p31
ccopy_reg
_reconstructor
p32
(cmagot.refdata
Money
p33
c__builtin__
object
p34
Ntp35
Rp36
(dp37
S'currency'
p38
cmagot.refdata
Currency
p39
(S'EUR'
p40
tp41
Rp42
sS'amount'
p43
cdecimal
Decimal
p44
(S'1'
p45
tp46
Rp47
sbsS'transaction'
p48
g0
(cmagot.model
Transaction
p49
tp50
Rp51
(dp52
S'date'
p53
cdatetime
date
p54
(S'\x07\xd5\x03\x01'
p55
tp56
Rp57
sS'description'
p58
S'initial balance'
p59
sS'entries'
p60
(lp61
g29
ag0
(g27
tp62
Rp63
(dp64
g31
g36
sg48
g51
sS'type'
p65
g13
(S'CREDIT'
p66
tp67
Rp68
sS'account'
p69
g0
(g20
tp70
Rp71
(dp72
g12
g68
sg5
S'equity'
p73
sg18
g3
sg25
(lp74
g0
(g27
tp75
Rp76
(dp77
g31
g32
(g33
g34
Ntp78
Rp79
(dp80
g38
g42
sg43
g44
(S'2'
p81
tp82
Rp83
sbsg48
g0
(g49
tp84
Rp85
(dp86
S'date'
p87
g54
(S'\x07\xd5\x01\x01'
p88
tp89
Rp90
sg58
g59
sg60
(lp91
g0
(g27
tp92
Rp93
(dp94
g31
g79
sg48
g85
sg65
g16
sS'account'
p95
g0
(g20
tp96
Rp97
(dp98
g12
g16
sg5
S'computer'
p99
sg18
g10
sg25
(lp100
g93
asbsbag76
asbsg65
g68
sg95
g71
sbag0
(g27
tp101
Rp102
(dp103
g31
g32
(g33
g34
Ntp104
Rp105
(dp106
g38
g42
sg43
g44
(S'100.5'
p107
tp108
Rp109
sbsg48
g0
(g49
tp110
Rp111
(dp112
S'date'
p113
g54
(S'\x07\xd5\x01\x01'
p114
tp115
Rp116
sg58
g59
sg60
(lp117
g102
ag0
(g27
tp118
Rp119
(dp120
g31
g105
sg48
g111
sg65
g68
sS'account'
p121
g0
(g20
tp122
Rp123
(dp124
g12
g68
sg5
S'salary'
p125
sg18
g0
(g1
tp126
Rp127
(dp128
g12
g68
sg5
S'income'
p129
sg18
g3
sg7
(lp130
g123
asbsg25
(lp131
g119
asbsbasbsg65
g16
sg121
g71
sbag0
(g27
tp132
Rp133
(dp134
g31
g32
(g33
g34
Ntp135
Rp136
(dp137
g38
g42
sg43
g44
(S'4'
p138
tp139
Rp140
sbsg48
g0
(g49
tp141
Rp142
(dp143
g113
g54
(S'\x07\xd5\x01\x01'
p144
tp145
Rp146
sg58
g59
sg60
(lp147
g0
(g27
tp148
Rp149
(dp150
g31
g136
sg48
g142
sg65
g16
sg121
g0
(g20
tp151
Rp152
(dp153
g12
g16
sg5
S'cash'
p154
sg18
g0
(g1
tp155
Rp156
(dp157
g12
g16
sg5
S'expense'
p158
sg18
g3
sg7
(lp159
g0
(g20
tp160
Rp161
(dp162
g12
g16
sg5
S'warranty'
p163
sg18
g156
sg25
(lp164
g0
(g27
tp165
Rp166
(dp167
g31
g32
(g33
g34
Ntp168
Rp169
(dp170
g38
g42
sg43
g44
(S'3'
p171
tp172
Rp173
sbsg48
g0
(g49
tp174
Rp175
(dp176
g113
g54
(S'\x07\xd5\x02\x01'
p177
tp178
Rp179
sg58
g59
sg60
(lp180
g166
ag0
(g27
tp181
Rp182
(dp183
g31
g169
sg48
g175
sg65
g68
sg121
g71
sbasbsg65
g16
sg121
g161
sbasbag152
asbsg25
(lp184
g149
asbsbag133
asbsg65
g68
sg121
g71
sbag182
ag63
asbsbasbsg65
g16
sg69
g22
sbasbag97
asbag156
ag127
ag0
(g1
tp185
Rp186
(dp187
g12
g68
sg5
S'liability'
p188
sg18
g3
sg7
(lp189
g0
(g20
tp190
Rp191
(dp192
g12
g68
sg5
S'loan'
p193
sg18
g186
sbasbag71
asb.