cpersistence._persistence
simple_new
p1
(cmagot.model
Account
p2
tRp3
(dp4
S'name'
p5
S'root'
p6
sS'subAccounts'
p7
(lp8
g1
(cmagot.model
EntryAccount
p9
tRp10
(dp11
S'name'
p12
Vequity
p13
sS'type'
p14
cmagot.refdata
MovementType
p15
(S'CREDIT'
p16
tRp17
sS'description'
p18
VEquity account
p19
sS'parent'
p20
g3
sS'entries'
p21
(lp22
g1
(cmagot.model
Entry
p23
tRp24
(dp25
S'amount'
p26
ccopy_reg
_reconstructor
p27
(cmagot.refdata
Money
p28
c__builtin__
object
p29
NtRp30
(dp31
S'currency'
p32
cmagot.refdata
Currency
p33
(S'EUR'
p34
tRp35
sS'amount'
p36
cdecimal
Decimal
p37
(S'2'
tRp38
sbsS'transaction'
p39
g1
(cmagot.model
Transaction
p40
tRp41
(dp42
S'date'
p43
cdatetime
date
p44
(S'\x07\xd5\x01\x01'
tRp45
sS'description'
p46
Vzzz
p47
sS'number'
p48
V
sS'entries'
p49
(lp50
g1
(g23
tRp51
(dp52
g26
g30
sg39
g41
sS'type'
p53
g15
(S'DEBIT'
p54
tRp55
sS'account'
p56
g1
(g9
tRp57
(dp58
g5
S'computer'
p59
sg14
g55
sS'description'
p60
S''
sg20
g1
(g9
tRp61
(dp62
g5
S'asset'
p63
sg14
g55
sg60
S''
sg20
g3
sg7
(lp64
g1
(g9
tRp65
(dp66
g5
S'checking'
p67
sg14
g55
sg60
S''
sg20
g61
sg21
(lp68
g1
(g23
tRp69
(dp70
g26
g27
(g28
g29
NtRp71
(dp72
g32
g35
sg36
g37
(S'1'
tRp73
sbsg39
g1
(g40
tRp74
(dp75
g43
g44
(S'\x07\xd5\x02\x01'
tRp76
sg46
Vbbb
p77
sg48
V3
sg49
(lp78
g69
ag1
(g23
tRp79
(dp80
g26
g71
sg39
g74
sg53
g17
sg56
g10
sbasbsg53
g55
sg56
g65
sbasbag57
asbsg21
(lp81
g51
asbsbag24
asbsg53
g17
sg56
g10
sbag1
(g23
tRp82
(dp83
g26
g27
(g28
g29
NtRp84
(dp85
g32
g35
sg36
g37
(S'3'
tRp86
sbsg39
g1
(g40
tRp87
(dp88
g43
g44
(S'\x07\xd5\x01\x01'
tRp89
sg46
Vddd
p90
sg48
V1
sg49
(lp91
g1
(g23
tRp92
(dp93
g26
g84
sg39
g87
sg53
g55
sg56
g1
(g9
tRp94
(dp95
g5
S'warranty'
p96
sg14
g55
sg60
S''
sg20
g1
(g9
tRp97
(dp98
g5
S'expense'
p99
sg14
g55
sg60
S''
sg20
g3
sg7
(lp100
g94
ag1
(g9
tRp101
(dp102
g5
S'cash'
p103
sg14
g55
sg60
S''
sg20
g97
sg21
(lp104
g1
(g23
tRp105
(dp106
g26
g27
(g28
g29
NtRp107
(dp108
g32
g35
sg36
g37
(S'4'
tRp109
sbsg39
g1
(g40
tRp110
(dp111
g43
g44
(S'\x07\xd5\x02\x01'
tRp112
sg46
Vccc
p113
sg48
V4
sg49
(lp114
g105
ag1
(g23
tRp115
(dp116
g26
g107
sg39
g110
sg53
g17
sg56
g10
sbasbsg53
g55
sg56
g101
sbasbasbsg21
(lp117
g92
asbsbag82
asbsg53
g17
sg56
g10
sbag1
(g23
tRp118
(dp119
g26
g27
(g28
g29
NtRp120
(dp121
g32
g35
sg36
g37
(S'100.5'
tRp122
sbsg39
g1
(g40
tRp123
(dp124
g43
g44
(S'\x07\xd5\x01\x01'
tRp125
sg46
Vaaa
p126
sg48
V2
sg49
(lp127
g118
ag1
(g23
tRp128
(dp129
g26
g120
sg39
g123
sg53
g17
sg56
g1
(g9
tRp130
(dp131
g5
S'salary'
p132
sg14
g17
sg60
S''
sg20
g1
(g9
tRp133
(dp134
g5
S'income'
p135
sg14
g17
sg60
S''
sg20
g3
sg7
(lp136
g130
asbsg21
(lp137
g128
asbsbasbsg53
g55
sg56
g10
sbag79
ag115
asbag61
ag97
ag133
ag1
(g9
tRp138
(dp139
g5
S'liability'
p140
sg14
g17
sg60
S''
sg20
g3
sg7
(lp141
g1
(g9
tRp142
(dp143
g14
g17
sg60
S''
sg20
g138
sg5
S'loan'
p144
sbasbasb.