cpersistence._persistence
simple_new
p0
(cmagot.model
SummaryAccount
p1
tp2
Rp3
(dp4
S'name'
p5
S'root'
p6
sS'subAccounts'
p7
(lp8
g0
(g1
tp9
Rp10
(dp11
S'type'
p12
cmagot.refdata
MovementType
p13
(S'DEBIT'
p14
tp15
Rp16
sg5
S'asset'
p17
sS'parent'
p18
g3
sg7
(lp19
g0
(cmagot.model
DetailAccount
p20
tp21
Rp22
(dp23
g12
g16
sg5
S'checking'
p24
sg18
g10
sS'entries'
p25
(lp26
g0
(cmagot.model
Entry
p27
tp28
Rp29
(dp30
S'amount'
p31
ccopy_reg
_reconstructor
p32
(cmagot.refdata
Money
p33
c__builtin__
object
p34
Ntp35
Rp36
(dp37
S'currency'
p38
cmagot.refdata
Currency
p39
(S'EUR'
p40
tp41
Rp42
sS'amount'
p43
cdecimal
Decimal
p44
(S'1'
p45
tp46
Rp47
sbsS'transaction'
p48
g0
(cmagot.model
Transaction
p49
tp50
Rp51
(dp52
S'date'
p53
cdatetime
date
p54
(S'\x07\xd6\x05\x12'
p55
tp56
Rp57
sS'description'
p58
S'initial balance'
p59
sS'entries'
p60
(lp61
g29
ag0
(g27
tp62
Rp63
(dp64
g31
g36
sg48
g51
sS'type'
p65
g13
(S'CREDIT'
p66
tp67
Rp68
sS'account'
p69
g0
(g20
tp70
Rp71
(dp72
g12
g68
sg5
S'equity'
p73
sg18
g3
sg25
(lp74
g63
ag0
(g27
tp75
Rp76
(dp77
g31
g32
(g33
g34
Ntp78
Rp79
(dp80
g38
g42
sg43
g44
(S'2'
p81
tp82
Rp83
sbsg48
g0
(g49
tp84
Rp85
(dp86
S'date'
p87
g54
(S'\x07\xd5\x05\x05'
p88
tp89
Rp90
sg58
g59
sg60
(lp91
g0
(g27
tp92
Rp93
(dp94
g31
g79
sg48
g85
sg65
g16
sg69
g0
(g20
tp95
Rp96
(dp97
g25
(lp98
g93
asg12
g16
sS'name'
p99
S'computer'
p100
sS'parent'
p101
g0
(g1
tp102
Rp103
(dp104
g12
g16
sg5
S'expense'
p105
sg18
g3
sg7
(lp106
g0
(g20
tp107
Rp108
(dp109
g12
g16
sg5
S'warranty'
p110
sg18
g103
sg25
(lp111
g0
(g27
tp112
Rp113
(dp114
g31
g32
(g33
g34
Ntp115
Rp116
(dp117
g38
g42
sg43
g44
(S'3'
p118
tp119
Rp120
sbsg48
g0
(g49
tp121
Rp122
(dp123
g87
g54
(S'\x07\xd5\x05\x05'
p124
tp125
Rp126
sg58
g59
sg60
(lp127
g113
ag0
(g27
tp128
Rp129
(dp130
g31
g116
sg48
g122
sg65
g68
sg69
g71
sbasbsg65
g16
sg69
g108
sbasbag0
(g20
tp131
Rp132
(dp133
g12
g16
sg5
S'cash'
p134
sg18
g103
sg25
(lp135
g0
(g27
tp136
Rp137
(dp138
g31
g32
(g33
g34
Ntp139
Rp140
(dp141
g38
g42
sg43
g44
(S'4'
p142
tp143
Rp144
sbsg48
g0
(g49
tp145
Rp146
(dp147
S'date'
p148
g54
(S'\x07\xd5\x01\x19'
p149
tp150
Rp151
sg58
g59
sg60
(lp152
g137
ag0
(g27
tp153
Rp154
(dp155
g31
g140
sg48
g146
sg65
g68
sg69
g71
sbasbsg65
g16
sg69
g132
sbasbag96
asbsS'description'
p156
S''
p157
sbsbag76
asbsg65
g68
sg69
g71
sbag129
ag154
ag0
(g27
tp158
Rp159
(dp160
g31
g32
(g33
g34
Ntp161
Rp162
(dp163
g38
g42
sg43
g44
(S'100.5'
p164
tp165
Rp166
sbsg48
g0
(g49
tp167
Rp168
(dp169
g148
g54
(S'\x07\xd4\x05\r'
p170
tp171
Rp172
sg58
g59
sg60
(lp173
g159
ag0
(g27
tp174
Rp175
(dp176
g31
g162
sg48
g168
sg65
g68
sg69
g0
(g20
tp177
Rp178
(dp179
g12
g68
sg5
S'salary'
p180
sg18
g0
(g1
tp181
Rp182
(dp183
g12
g68
sg5
S'income'
p184
sg18
g3
sg7
(lp185
g178
asbsg25
(lp186
g175
asbsbasbsg65
g16
sg69
g71
sbasbsbasbsg65
g16
sg69
g22
sbasbasbag103
ag182
ag0
(g1
tp187
Rp188
(dp189
g12
g68
sg5
S'liability'
p190
sg18
g3
sg7
(lp191
g0
(g20
tp192
Rp193
(dp194
g12
g68
sg5
S'loan'
p195
sg18
g188
sbasbag71
asb.