cpersistence._persistence
simple_new
p1
(cmagot.model
DetailAccount
p2
tRp3
(dp4
S'name'
p5
S'root'
p6
sS'subAccounts'
p7
(lp8
g1
(g2
tRp9
(dp10
S'type'
p11
cmagot.refdata
MovementType
p12
(S'CREDIT'
p13
tRp14
sg5
S'equity'
p15
sS'parent'
p16
g3
sS'entries'
p17
(lp18
g1
(cmagot.model
Entry
p19
tRp20
(dp21
S'amount'
p22
ccopy_reg
_reconstructor
p23
(cmagot.refdata
Money
p24
c__builtin__
object
p25
NtRp26
(dp27
S'currency'
p28
cmagot.refdata
Currency
p29
(S'EUR'
p30
tRp31
sS'amount'
p32
cdecimal
Decimal
p33
(S'2'
tRp34
sbsS'transaction'
p35
g1
(cmagot.model
Transaction
p36
tRp37
(dp38
S'date'
p39
cdatetime
date
p40
(S'\x07\xd5\x01\x01'
tRp41
sS'entries'
p42
(lp43
g1
(g19
tRp44
(dp45
g22
g26
sg35
g37
sS'type'
p46
g12
(S'DEBIT'
p47
tRp48
sS'account'
p49
g1
(g2
tRp50
(dp51
g11
g48
sg5
S'cash'
p52
sg16
g1
(g2
tRp53
(dp54
g11
g48
sg5
S'expense'
p55
sg16
g3
sg7
(lp56
g1
(g2
tRp57
(dp58
g11
g48
sg5
S'warranty'
p59
sg16
g53
sg17
(lp60
g1
(g19
tRp61
(dp62
g22
g23
(g24
g25
NtRp63
(dp64
g28
g31
sg32
g33
(S'3'
tRp65
sbsg35
g1
(g36
tRp66
(dp67
g39
g40
(S'\x07\xd5\x01\x01'
tRp68
sg42
(lp69
g61
ag1
(g19
tRp70
(dp71
g22
g63
sg35
g66
sg46
g14
sS'account'
p72
g9
sbasS'number'
p73
I2
sS'description'
p74
Vaaa
p75
sbsg46
g48
sg72
g57
sbasbag50
asbsg17
(lp76
g44
asbsbag20
asg73
I1
sg74
Vddd
p77
sbsg46
g14
sg72
g9
sbag70
ag1
(g19
tRp78
(dp79
g22
g23
(g24
g25
NtRp80
(dp81
g28
g31
sg32
g33
(S'100.5'
tRp82
sbsg35
g1
(g36
tRp83
(dp84
g39
g40
(S'\x07\xd5\x01\x01'
tRp85
sg42
(lp86
g78
ag1
(g19
tRp87
(dp88
g22
g80
sg35
g83
sg46
g14
sg72
g1
(g2
tRp89
(dp90
g11
g14
sg5
S'salary'
p91
sg16
g1
(g2
tRp92
(dp93
g11
g14
sg5
S'income'
p94
sg16
g3
sg7
(lp95
g89
asbsg17
(lp96
g87
asbsbasg73
I3
sg74
Vzzz
p97
sbsg46
g48
sg72
g9
sbag1
(g19
tRp98
(dp99
g22
g23
(g24
g25
NtRp100
(dp101
g28
g31
sg32
g33
(S'1'
tRp102
sbsg35
g1
(g36
tRp103
(dp104
g39
g40
(S'\x07\xd5\x02\x01'
tRp105
sg42
(lp106
g1
(g19
tRp107
(dp108
g22
g100
sg35
g103
sg46
g48
sg72
g1
(g2
tRp109
(dp110
g11
g48
sg5
S'checking'
p111
sg16
g1
(g2
tRp112
(dp113
g11
g48
sg5
S'asset'
p114
sg16
g3
sg7
(lp115
g109
ag1
(g2
tRp116
(dp117
g11
g48
sg5
S'computer'
p118
sg16
g112
sg17
(lp119
g1
(g19
tRp120
(dp121
g22
g23
(g24
g25
NtRp122
(dp123
g28
g31
sg32
g33
(S'4'
tRp124
sbsg35
g1
(g36
tRp125
(dp126
g39
g40
(S'\x07\xd5\x02\x01'
tRp127
sg42
(lp128
g120
ag1
(g19
tRp129
(dp130
g22
g122
sg35
g125
sg46
g14
sg72
g9
sbasg73
I5
sg74
Vccc
p131
sbsg46
g48
sg49
g116
sbasbasbsg17
(lp132
g107
asbsbag98
asg73
I4
sg74
Vbbb
p133
sbsg46
g14
sg72
g9
sbag129
asbag112
ag53
ag92
ag1
(g2
tRp134
(dp135
g11
g14
sg5
S'liability'
p136
sg16
g3
sg7
(lp137
g1
(g2
tRp138
(dp139
g11
g14
sg5
S'loan'
p140
sg16
g134
sbasbasb.