cpersistence._persistence
simple_new
p1
(cmagot.model
Account
p2
tRp3
(dp4
S'name'
p5
S'root'
p6
sS'subAccounts'
p7
(lp8
g1
(cmagot.model
EntryAccount
p9
tRp10
(dp11
S'name'
p12
Vequity
p13
sS'type'
p14
cmagot.refdata
MovementType
p15
(S'CREDIT'
p16
tRp17
sS'description'
p18
VEquity account
p19
sS'parent'
p20
g3
sS'entries'
p21
(lp22
g1
(cmagot.model
Entry
p23
tRp24
(dp25
S'amount'
p26
ccopy_reg
_reconstructor
p27
(cmagot.refdata
Money
p28
c__builtin__
object
p29
NtRp30
(dp31
S'currency'
p32
cmagot.refdata
Currency
p33
(S'EUR'
p34
tRp35
sS'amount'
p36
cdecimal
Decimal
p37
(S'2'
tRp38
sbsS'transaction'
p39
g1
(cmagot.model
Transaction
p40
tRp41
(dp42
S'date'
p43
cdatetime
date
p44
(S'\x07\xd5\x01\x01'
tRp45
sS'description'
p46
Vzzz
p47
sS'number'
p48
V
sS'entries'
p49
(lp50
g1
(g23
tRp51
(dp52
g26
g30
sg39
g41
sS'type'
p53
g15
(S'DEBIT'
p54
tRp55
sS'account'
p56
g1
(g9
tRp57
(dp58
g5
S'computer'
p59
sg14
g55
sS'description'
p60
S''
sg20
g1
(g9
tRp61
(dp62
g5
S'asset'
p63
sg14
g55
sg60
S''
sg20
g3
sg7
(lp64
g57
ag1
(g9
tRp65
(dp66
g5
S'checking'
p67
sg14
g55
sg60
S''
sS'parent'
p68
g61
sg21
(lp69
g1
(g23
tRp70
(dp71
g26
g27
(g28
g29
NtRp72
(dp73
g32
g35
sg36
g37
(S'1'
tRp74
sbsg39
g1
(g40
tRp75
(dp76
g43
g44
(S'\x07\xd5\x02\x01'
tRp77
sg46
Vbbb
p78
sg48
V3
sg49
(lp79
g70
ag1
(g23
tRp80
(dp81
g26
g72
sg39
g75
sg53
g17
sg56
g10
sbasbsg53
g55
sg56
g65
sbasbasbsg21
(lp82
g51
asbsbag24
asbsg53
g17
sg56
g10
sbag1
(g23
tRp83
(dp84
g26
g27
(g28
g29
NtRp85
(dp86
g32
g35
sg36
g37
(S'3'
tRp87
sbsg39
g1
(g40
tRp88
(dp89
g43
g44
(S'\x07\xd5\x01\x01'
tRp90
sg46
Vddd
p91
sg48
V1
sg49
(lp92
g1
(g23
tRp93
(dp94
g26
g85
sg39
g88
sg53
g55
sg56
g1
(g9
tRp95
(dp96
g5
S'warranty'
p97
sg14
g55
sg60
S''
sg20
g1
(g9
tRp98
(dp99
g5
S'expense'
p100
sg14
g55
sg60
S''
sg20
g3
sg7
(lp101
g95
ag1
(g9
tRp102
(dp103
g5
S'cash'
p104
sg14
g55
sg60
S''
sg20
g98
sg21
(lp105
g1
(g23
tRp106
(dp107
g26
g27
(g28
g29
NtRp108
(dp109
g32
g35
sg36
g37
(S'4'
tRp110
sbsg39
g1
(g40
tRp111
(dp112
g43
g44
(S'\x07\xd5\x02\x01'
tRp113
sg46
Vccc
p114
sg48
V4
sg49
(lp115
g106
ag1
(g23
tRp116
(dp117
g26
g108
sg39
g111
sg53
g17
sg56
g10
sbasbsg53
g55
sg56
g102
sbasbasbsg21
(lp118
g93
asbsbag83
asbsg53
g17
sg56
g10
sbag1
(g23
tRp119
(dp120
g26
g27
(g28
g29
NtRp121
(dp122
g32
g35
sg36
g37
(S'100.5'
tRp123
sbsg39
g1
(g40
tRp124
(dp125
g43
g44
(S'\x07\xd5\x01\x01'
tRp126
sg46
Vaaa
p127
sg48
V2
sg49
(lp128
g119
ag1
(g23
tRp129
(dp130
g26
g121
sg39
g124
sg53
g17
sg56
g1
(g9
tRp131
(dp132
g5
S'salary'
p133
sg14
g17
sg60
S''
sg20
g1
(g9
tRp134
(dp135
g5
S'income'
p136
sg14
g17
sg60
S''
sg20
g3
sg7
(lp137
g131
asbsg21
(lp138
g129
asbsbasbsg53
g55
sg56
g10
sbag80
ag116
asbag61
ag98
ag134
ag1
(g9
tRp139
(dp140
g5
S'liability'
p141
sg14
g17
sg60
S''
sg20
g3
sg7
(lp142
g1
(g9
tRp143
(dp144
g14
g17
sg60
S''
sg20
g139
sg5
S'loan'
p145
sbasbasb.