cpersistence._persistence
simple_new
p0
(cmagot.model
SummaryAccount
p1
tp2
Rp3
(dp4
S'name'
p5
S'root'
p6
sS'subAccounts'
p7
(lp8
g0
(g1
tp9
Rp10
(dp11
S'type'
p12
cmagot.refdata
MovementType
p13
(S'DEBIT'
p14
tp15
Rp16
sg5
S'asset'
p17
sS'parent'
p18
g3
sg7
(lp19
g0
(cmagot.model
DetailAccount
p20
tp21
Rp22
(dp23
g12
g16
sg5
S'checking'
p24
sg18
g10
sS'entries'
p25
(lp26
g0
(cmagot.model
Entry
p27
tp28
Rp29
(dp30
S'amount'
p31
ccopy_reg
_reconstructor
p32
(cmagot.refdata
Money
p33
c__builtin__
object
p34
Ntp35
Rp36
(dp37
S'currency'
p38
cmagot.refdata
Currency
p39
(S'EUR'
p40
tp41
Rp42
sS'amount'
p43
g32
(cmagot.fixedpoint
FixedPoint
p44
g34
Ntp45
Rp46
F1.0
bsbsS'transaction'
p47
g0
(cmagot.model
Transaction
p48
tp49
Rp50
(dp51
S'date'
p52
cdatetime
date
p53
(S'\x07\xd5\x01\x1e'
p54
tp55
Rp56
sS'description'
p57
S'initial balance'
p58
sS'entries'
p59
(lp60
g29
ag0
(g27
tp61
Rp62
(dp63
g31
g36
sg47
g50
sS'type'
p64
g13
(S'CREDIT'
p65
tp66
Rp67
sS'account'
p68
g0
(g20
tp69
Rp70
(dp71
g12
g67
sg5
S'equity'
p72
sg18
g3
sg25
(lp73
g62
ag0
(g27
tp74
Rp75
(dp76
g31
g32
(g33
g34
Ntp77
Rp78
(dp79
g38
g42
sg43
g32
(g44
g34
Ntp80
Rp81
F2.0
bsbsg47
g0
(g48
tp82
Rp83
(dp84
g52
g53
(S'\x07\xd5\x01\x1e'
p85
tp86
Rp87
sg57
g58
sg59
(lp88
g0
(g27
tp89
Rp90
(dp91
g31
g78
sg47
g83
sg64
g16
sg68
g0
(g20
tp92
Rp93
(dp94
g12
g16
sg5
S'computer'
p95
sg18
g10
sg25
(lp96
g90
asbsbag75
asbsg64
g67
sg68
g70
sbag0
(g27
tp97
Rp98
(dp99
g31
g32
(g33
g34
Ntp100
Rp101
(dp102
g38
g42
sg43
g32
(g44
g34
Ntp103
Rp104
F3.0
bsbsg47
g0
(g48
tp105
Rp106
(dp107
g52
g53
(S'\x07\xd5\x01\x1e'
p108
tp109
Rp110
sg57
g58
sg59
(lp111
g0
(g27
tp112
Rp113
(dp114
g31
g101
sg47
g106
sg64
g16
sg68
g0
(g20
tp115
Rp116
(dp117
g12
g16
sg5
S'warranty'
p118
sg18
g0
(g1
tp119
Rp120
(dp121
g12
g16
sg5
S'expense'
p122
sg18
g3
sg7
(lp123
g116
ag0
(g20
tp124
Rp125
(dp126
g12
g16
sg5
S'cash'
p127
sg18
g120
sg25
(lp128
g0
(g27
tp129
Rp130
(dp131
g31
g32
(g33
g34
Ntp132
Rp133
(dp134
g38
g42
sg43
g32
(g44
g34
Ntp135
Rp136
F4.0
bsbsg47
g0
(g48
tp137
Rp138
(dp139
g52
g53
(S'\x07\xd5\x01\x1e'
p140
tp141
Rp142
sg57
g58
sg59
(lp143
g130
ag0
(g27
tp144
Rp145
(dp146
g31
g133
sg47
g138
sg64
g67
sg68
g70
sbasbsg64
g16
sg68
g125
sbasbasbsg25
(lp147
g113
asbsbag98
asbsg64
g67
sg68
g70
sbag145
ag0
(g27
tp148
Rp149
(dp150
g31
g32
(g33
g34
Ntp151
Rp152
(dp153
g38
g42
sg43
g32
(g44
g34
Ntp154
Rp155
F100.5
bsbsg47
g0
(g48
tp156
Rp157
(dp158
g52
g53
(S'\x07\xd5\x01\x1e'
p159
tp160
Rp161
sg57
g58
sg59
(lp162
g149
ag0
(g27
tp163
Rp164
(dp165
g31
g152
sg47
g157
sg64
g67
sg68
g0
(g20
tp166
Rp167
(dp168
g12
g67
sg5
S'salary'
p169
sg18
g0
(g1
tp170
Rp171
(dp172
g12
g67
sg5
S'income'
p173
sg18
g3
sg7
(lp174
g167
asbsg25
(lp175
g164
asbsbasbsg64
g16
sg68
g70
sbasbsbasbsg64
g16
sg68
g22
sbasbag93
asbag120
ag171
ag0
(g1
tp176
Rp177
(dp178
g12
g67
sg5
S'liability'
p179
sg18
g3
sg7
(lp180
g0
(g20
tp181
Rp182
(dp183
g12
g67
sg5
S'loan'
p184
sg18
g177
sbasbag70
asb.