cpersistence._persistence
simple_new
p1
(cmagot.model
DetailAccount
p2
tRp3
(dp4
S'name'
p5
S'root'
p6
sS'subAccounts'
p7
(lp8
g1
(g2
tRp9
(dp10
S'type'
p11
cmagot.refdata
MovementType
p12
(S'DEBIT'
p13
tRp14
sg5
S'asset'
p15
sS'parent'
p16
g3
sg7
(lp17
g1
(g2
tRp18
(dp19
g11
g14
sg5
S'checking'
p20
sg16
g9
sS'entries'
p21
(lp22
g1
(cmagot.model
Entry
p23
tRp24
(dp25
S'amount'
p26
ccopy_reg
_reconstructor
p27
(cmagot.refdata
Money
p28
c__builtin__
object
p29
NtRp30
(dp31
S'currency'
p32
cmagot.refdata
Currency
p33
(S'EUR'
p34
tRp35
sS'amount'
p36
cdecimal
Decimal
p37
(S'1'
tRp38
sbsS'transaction'
p39
g1
(cmagot.model
Transaction
p40
tRp41
(dp42
S'date'
p43
cdatetime
date
p44
(S'\x07\xd5\x02\x01'
tRp45
sS'description'
p46
S'initial balance'
p47
sS'entries'
p48
(lp49
g24
ag1
(g23
tRp50
(dp51
g26
g30
sg39
g41
sS'type'
p52
g12
(S'CREDIT'
p53
tRp54
sS'account'
p55
g1
(g2
tRp56
(dp57
g11
g54
sg5
S'equity'
p58
sg16
g3
sg21
(lp59
g1
(g23
tRp60
(dp61
g26
g27
(g28
g29
NtRp62
(dp63
g32
g35
sg36
g37
(S'2'
tRp64
sbsg39
g1
(g40
tRp65
(dp66
g43
g44
(S'\x07\xd5\x01\x01'
tRp67
sg46
g47
sg48
(lp68
g1
(g23
tRp69
(dp70
g26
g62
sg39
g65
sg52
g14
sg55
g1
(g2
tRp71
(dp72
g11
g14
sg5
S'computer'
p73
sg16
g9
sg21
(lp74
g69
asbsbag60
asbsg52
g54
sg55
g56
sbag1
(g23
tRp75
(dp76
g26
g27
(g28
g29
NtRp77
(dp78
g32
g35
sg36
g37
(S'3'
tRp79
sbsg39
g1
(g40
tRp80
(dp81
g43
g44
(S'\x07\xd5\x01\x01'
tRp82
sg46
g47
sg48
(lp83
g1
(g23
tRp84
(dp85
g26
g77
sg39
g80
sg52
g14
sg55
g1
(g2
tRp86
(dp87
g11
g14
sg5
S'warranty'
p88
sg16
g1
(g2
tRp89
(dp90
g11
g14
sg5
S'expense'
p91
sg16
g3
sg7
(lp92
g86
ag1
(g2
tRp93
(dp94
g11
g14
sg5
S'cash'
p95
sg16
g89
sg21
(lp96
g1
(g23
tRp97
(dp98
g26
g27
(g28
g29
NtRp99
(dp100
g32
g35
sg36
g37
(S'4'
tRp101
sbsg39
g1
(g40
tRp102
(dp103
g43
g44
(S'\x07\xd5\x02\x01'
tRp104
sg46
g47
sg48
(lp105
g97
ag1
(g23
tRp106
(dp107
g26
g99
sg39
g102
sg52
g54
sg55
g56
sbasbsg52
g14
sg55
g93
sbasbasbsg21
(lp108
g84
asbsbag75
asbsg52
g54
sg55
g56
sbag1
(g23
tRp109
(dp110
g26
g27
(g28
g29
NtRp111
(dp112
g32
g35
sg36
g37
(S'100.5'
tRp113
sbsg39
g1
(g40
tRp114
(dp115
g43
g44
(S'\x07\xd5\x01\x01'
tRp116
sg46
g47
sg48
(lp117
g109
ag1
(g23
tRp118
(dp119
g26
g111
sg39
g114
sg52
g54
sg55
g1
(g2
tRp120
(dp121
g11
g54
sg5
S'salary'
p122
sg16
g1
(g2
tRp123
(dp124
g11
g54
sg5
S'income'
p125
sg16
g3
sg7
(lp126
g120
asbsg21
(lp127
g118
asbsbasbsg52
g14
sg55
g56
sbag50
ag106
asbsbasbsg52
g14
sg55
g18
sbasbag71
asbag89
ag123
ag1
(g2
tRp128
(dp129
g11
g54
sg5
S'liability'
p130
sg16
g3
sg7
(lp131
g1
(g2
tRp132
(dp133
g11
g54
sg5
S'loan'
p134
sg16
g128
sbasbag56
asb.