cpersistence._persistence
simple_new
p0
(cmagot.model
SummaryAccount
p1
tp2
Rp3
(dp4
S'name'
p5
S'root'
p6
sS'subAccounts'
p7
(lp8
g0
(g1
tp9
Rp10
(dp11
S'type'
p12
cmagot.refdata
MovementType
p13
(S'DEBIT'
p14
tp15
Rp16
sg5
S'asset'
p17
sS'parent'
p18
g3
sg7
(lp19
g0
(cmagot.model
DetailAccount
p20
tp21
Rp22
(dp23
g12
g16
sg5
S'checking'
p24
sg18
g10
sS'entries'
p25
(lp26
g0
(cmagot.model
Entry
p27
tp28
Rp29
(dp30
S'amount'
p31
ccopy_reg
_reconstructor
p32
(cmagot.refdata
Money
p33
c__builtin__
object
p34
Ntp35
Rp36
(dp37
S'currency'
p38
cmagot.refdata
Currency
p39
(S'EUR'
p40
tp41
Rp42
sS'amount'
p43
cdecimal
Decimal
p44
(S'1'
p45
tp46
Rp47
sbsS'transaction'
p48
g0
(cmagot.model
Transaction
p49
tp50
Rp51
(dp52
S'date'
p53
cdatetime
date
p54
(S'\x07\xd0\x05\n'
p55
tp56
Rp57
sS'description'
p58
S'initial balance'
p59
sS'entries'
p60
(lp61
g29
ag0
(g27
tp62
Rp63
(dp64
g31
g36
sg48
g51
sS'type'
p65
g13
(S'CREDIT'
p66
tp67
Rp68
sS'account'
p69
g0
(g20
tp70
Rp71
(dp72
g12
g68
sg5
S'equity'
p73
sg18
g3
sg25
(lp74
g63
ag0
(g27
tp75
Rp76
(dp77
g31
g32
(g33
g34
Ntp78
Rp79
(dp80
g38
g42
sg43
g44
(S'3'
p81
tp82
Rp83
sbsg48
g0
(g49
tp84
Rp85
(dp86
g53
g54
(S'\x07\xd0\x05\n'
p87
tp88
Rp89
sg58
g59
sg60
(lp90
g0
(g27
tp91
Rp92
(dp93
g31
g79
sg48
g85
sg65
g16
sg69
g0
(g20
tp94
Rp95
(dp96
g12
g16
sg5
S'warranty'
p97
sg18
g0
(g1
tp98
Rp99
(dp100
g12
g16
sg5
S'expense'
p101
sg18
g3
sg7
(lp102
g95
ag0
(g20
tp103
Rp104
(dp105
g12
g16
sg5
S'cash'
p106
sg18
g99
sg25
(lp107
g0
(g27
tp108
Rp109
(dp110
g31
g32
(g33
g34
Ntp111
Rp112
(dp113
g38
g42
sg43
g44
(S'4'
p114
tp115
Rp116
sbsg48
g0
(g49
tp117
Rp118
(dp119
g53
g54
(S'\x07\xd0\x05\n'
p120
tp121
Rp122
sg58
g59
sg60
(lp123
g109
ag0
(g27
tp124
Rp125
(dp126
g31
g112
sg48
g118
sg65
g68
sg69
g71
sbasbsg65
g16
sg69
g104
sbasbasbsg25
(lp127
g92
asbsbag76
asbsg65
g68
sg69
g71
sbag125
ag0
(g27
tp128
Rp129
(dp130
g31
g32
(g33
g34
Ntp131
Rp132
(dp133
g38
g42
sg43
g44
(S'2'
p134
tp135
Rp136
sbsg48
g0
(g49
tp137
Rp138
(dp139
g53
g54
(S'\x07\xd1\x05\n'
p140
tp141
Rp142
sg58
g59
sg60
(lp143
g0
(g27
tp144
Rp145
(dp146
g31
g132
sg48
g138
sg65
g16
sg69
g0
(g20
tp147
Rp148
(dp149
g12
g16
sg5
S'computer'
p150
sg18
g10
sg25
(lp151
g145
asbsbag129
asbsg65
g68
sg69
g71
sbag0
(g27
tp152
Rp153
(dp154
g31
g32
(g33
g34
Ntp155
Rp156
(dp157
g38
g42
sg43
g44
(S'100.5'
p158
tp159
Rp160
sbsg48
g0
(g49
tp161
Rp162
(dp163
g53
g54
(S'\x07\xd4\x05\n'
p164
tp165
Rp166
sg58
g59
sg60
(lp167
g153
ag0
(g27
tp168
Rp169
(dp170
g31
g156
sg48
g162
sg65
g68
sg69
g0
(g20
tp171
Rp172
(dp173
g12
g68
sg5
S'salary'
p174
sg18
g0
(g1
tp175
Rp176
(dp177
g12
g68
sg5
S'income'
p178
sg18
g3
sg7
(lp179
g172
asbsg25
(lp180
g169
asbsbasbsg65
g16
sg69
g71
sbasbsbasbsg65
g16
sg69
g22
sbasbag148
asbag99
ag176
ag0
(g1
tp181
Rp182
(dp183
g12
g68
sg5
S'liability'
p184
sg18
g3
sg7
(lp185
g0
(g20
tp186
Rp187
(dp188
g12
g68
sg5
S'loan'
p189
sg18
g182
sbasbag71
asb.