cpersistence._persistence
simple_new
p0
(cmagot.model
SummaryAccount
p1
tp2
Rp3
(dp4
S'name'
p5
S'root'
p6
sS'subAccounts'
p7
(lp8
g0
(g1
tp9
Rp10
(dp11
S'type'
p12
cmagot.refdata
MovementType
p13
(S'DEBIT'
p14
tp15
Rp16
sg5
S'asset'
p17
sS'parent'
p18
g3
sg7
(lp19
g0
(cmagot.model
DetailAccount
p20
tp21
Rp22
(dp23
g12
g16
sg5
S'checking'
p24
sg18
g10
sS'entries'
p25
(lp26
g0
(cmagot.model
Entry
p27
tp28
Rp29
(dp30
S'amount'
p31
ccopy_reg
_reconstructor
p32
(cmagot.refdata
Money
p33
c__builtin__
object
p34
Ntp35
Rp36
(dp37
S'currency'
p38
cmagot.refdata
Currency
p39
(S'EUR'
p40
tp41
Rp42
sS'amount'
p43
cdecimal
Decimal
p44
(S'1'
p45
tp46
Rp47
sbsS'transaction'
p48
g0
(cmagot.model
Transaction
p49
tp50
Rp51
(dp52
S'date'
p53
cdatetime
date
p54
(S'\x07\xd5\x02\x01'
p55
tp56
Rp57
sS'description'
p58
S'initial balance'
p59
sS'entries'
p60
(lp61
g29
ag0
(g27
tp62
Rp63
(dp64
g31
g36
sg48
g51
sS'type'
p65
g13
(S'CREDIT'
p66
tp67
Rp68
sS'account'
p69
g0
(g20
tp70
Rp71
(dp72
g12
g68
sg5
S'equity'
p73
sg18
g3
sg25
(lp74
g0
(g27
tp75
Rp76
(dp77
g31
g32
(g33
g34
Ntp78
Rp79
(dp80
g38
g42
sg43
g44
(S'2'
p81
tp82
Rp83
sbsg48
g0
(g49
tp84
Rp85
(dp86
g53
g54
(S'\x07\xd5\x01\x01'
p87
tp88
Rp89
sg58
g59
sg60
(lp90
g0
(g27
tp91
Rp92
(dp93
g31
g79
sg48
g85
sg65
g16
sg69
g0
(g20
tp94
Rp95
(dp96
g12
g16
sg5
S'computer'
p97
sg18
g10
sg25
(lp98
g92
asbsbag76
asbsg65
g68
sg69
g71
sbag0
(g27
tp99
Rp100
(dp101
g31
g32
(g33
g34
Ntp102
Rp103
(dp104
g38
g42
sg43
g44
(S'3'
p105
tp106
Rp107
sbsg48
g0
(g49
tp108
Rp109
(dp110
g53
g54
(S'\x07\xd5\x01\x01'
p111
tp112
Rp113
sg58
g59
sg60
(lp114
g0
(g27
tp115
Rp116
(dp117
g31
g103
sg48
g109
sg65
g16
sg69
g0
(g20
tp118
Rp119
(dp120
g12
g16
sg5
S'warranty'
p121
sg18
g0
(g1
tp122
Rp123
(dp124
g12
g16
sg5
S'expense'
p125
sg18
g3
sg7
(lp126
g119
ag0
(g20
tp127
Rp128
(dp129
g12
g16
sg5
S'cash'
p130
sg18
g123
sg25
(lp131
g0
(g27
tp132
Rp133
(dp134
g31
g32
(g33
g34
Ntp135
Rp136
(dp137
g38
g42
sg43
g44
(S'4'
p138
tp139
Rp140
sbsg48
g0
(g49
tp141
Rp142
(dp143
g53
g54
(S'\x07\xd5\x02\x01'
p144
tp145
Rp146
sg58
g59
sg60
(lp147
g133
ag0
(g27
tp148
Rp149
(dp150
g31
g136
sg48
g142
sg65
g68
sg69
g71
sbasbsg65
g16
sg69
g128
sbasbasbsg25
(lp151
g116
asbsbag100
asbsg65
g68
sg69
g71
sbag63
ag149
ag0
(g27
tp152
Rp153
(dp154
S'isReconciled'
p155
I1
sS'amount'
p156
g32
(g33
g34
Ntp157
Rp158
(dp159
S'currency'
p160
g42
sS'amount'
p161
g44
(S'100.5'
p162
tp163
Rp164
sS'_hashAndCompare'
p165
(g164
g42
tp166
sbsg48
g0
(g49
tp167
Rp168
(dp169
S'date'
p170
g54
(S'\x07\xd5\x02\x01'
p171
tp172
Rp173
sg60
(lp174
g0
(g27
tp175
Rp176
(dp177
g155
I0
sg156
g158
sg48
g168
sS'type'
p178
g68
sS'account'
p179
g0
(g20
tp180
Rp181
(dp182
g12
g68
sg5
S'salary'
p183
sg18
g0
(g1
tp184
Rp185
(dp186
g12
g68
sg5
S'income'
p187
sg18
g3
sg7
(lp188
g181
asbsg25
(lp189
g176
asbsbag153
asS'description'
p190
S'ccc'
p191
sS'number'
p192
I5
sbsg178
g16
sg179
g71
sbasbsbasbsg65
g16
sg69
g22
sbasbag95
asbag123
ag185
ag0
(g1
tp193
Rp194
(dp195
g12
g68
sg5
S'liability'
p196
sg18
g3
sg7
(lp197
g0
(g20
tp198
Rp199
(dp200
g12
g68
sg5
S'loan'
p201
sg18
g194
sS'entries'
p202
(lp203
sbasbag71
asb.