cpersistence._persistence
simple_new
p0
(cmagot.model
SummaryAccount
p1
tp2
Rp3
(dp4
S'name'
p5
S'root'
p6
sS'subAccounts'
p7
(lp8
g0
(g1
tp9
Rp10
(dp11
S'type'
p12
cmagot.refdata
MovementType
p13
(S'DEBIT'
p14
tp15
Rp16
sg5
S'asset'
p17
sS'parent'
p18
g3
sg7
(lp19
g0
(cmagot.model
DetailAccount
p20
tp21
Rp22
(dp23
g12
g16
sg5
S'checking'
p24
sg18
g10
sS'entries'
p25
(lp26
g0
(cmagot.model
Entry
p27
tp28
Rp29
(dp30
S'amount'
p31
ccopy_reg
_reconstructor
p32
(cmagot.refdata
Money
p33
c__builtin__
object
p34
Ntp35
Rp36
(dp37
S'currency'
p38
cmagot.refdata
Currency
p39
(S'EUR'
p40
tp41
Rp42
sS'amount'
p43
cdecimal
Decimal
p44
(S'1'
p45
tp46
Rp47
sbsS'transaction'
p48
g0
(cmagot.model
Transaction
p49
tp50
Rp51
(dp52
S'date'
p53
cdatetime
date
p54
(S'\x07\xd5\x02\x01'
p55
tp56
Rp57
sS'description'
p58
S'initial balance'
p59
sS'entries'
p60
(lp61
g29
ag0
(g27
tp62
Rp63
(dp64
g31
g36
sg48
g51
sS'type'
p65
g13
(S'CREDIT'
p66
tp67
Rp68
sS'account'
p69
g0
(g20
tp70
Rp71
(dp72
g12
g68
sg5
S'equity'
p73
sg18
g3
sg25
(lp74
g0
(g27
tp75
Rp76
(dp77
g65
g68
sS'amount'
p78
g32
(g33
g34
Ntp79
Rp80
(dp81
S'currency'
p82
g42
sS'amount'
p83
g44
(S'300.0'
p84
tp85
Rp86
sS'_hashAndCompare'
p87
(g86
g42
tp88
sbsg48
g0
(g49
tp89
Rp90
(dp91
S'date'
p92
g54
(S'\x07\xd3\x01\x01'
p93
tp94
Rp95
sS'number'
p96
I3
sS'description'
p97
S'bbb'
p98
sg60
(lp99
g0
(g27
tp100
Rp101
(dp102
g65
g16
sg78
g80
sg48
g90
sS'isReconciled'
p103
I1
sS'account'
p104
g0
(g20
tp105
Rp106
(dp107
g12
g68
sg5
S'salary'
p108
sg18
g0
(g1
tp109
Rp110
(dp111
g12
g68
sg5
S'income'
p112
sg18
g3
sg7
(lp113
g106
asbsg25
(lp114
g101
asbsbag76
asbsg103
I1
sg104
g71
sbag0
(g27
tp115
Rp116
(dp117
g31
g32
(g33
g34
Ntp118
Rp119
(dp120
g38
g42
sg43
g44
(S'2'
p121
tp122
Rp123
sbsg48
g0
(g49
tp124
Rp125
(dp126
g53
g54
(S'\x07\xd5\x01\x01'
p127
tp128
Rp129
sg58
g59
sg60
(lp130
g0
(g27
tp131
Rp132
(dp133
g31
g119
sg48
g125
sg65
g16
sg69
g0
(g20
tp134
Rp135
(dp136
g12
g16
sg5
S'computer'
p137
sg18
g10
sg25
(lp138
g132
asbsbag116
asbsg65
g68
sg69
g71
sbag0
(g27
tp139
Rp140
(dp141
g31
g32
(g33
g34
Ntp142
Rp143
(dp144
g38
g42
sg43
g44
(S'3'
p145
tp146
Rp147
sbsg48
g0
(g49
tp148
Rp149
(dp150
g53
g54
(S'\x07\xd5\x01\x01'
p151
tp152
Rp153
sg58
g59
sg60
(lp154
g0
(g27
tp155
Rp156
(dp157
g31
g143
sg48
g149
sg65
g16
sg69
g0
(g20
tp158
Rp159
(dp160
g12
g16
sg5
S'warranty'
p161
sg18
g0
(g1
tp162
Rp163
(dp164
g12
g16
sg5
S'expense'
p165
sg18
g3
sg7
(lp166
g159
ag0
(g20
tp167
Rp168
(dp169
g12
g16
sg5
S'cash'
p170
sg18
g163
sg25
(lp171
g0
(g27
tp172
Rp173
(dp174
g31
g32
(g33
g34
Ntp175
Rp176
(dp177
g38
g42
sg43
g44
(S'4'
p178
tp179
Rp180
sbsg48
g0
(g49
tp181
Rp182
(dp183
g53
g54
(S'\x07\xd5\x02\x01'
p184
tp185
Rp186
sg58
g59
sg60
(lp187
g173
ag0
(g27
tp188
Rp189
(dp190
g31
g176
sg48
g182
sg65
g68
sg69
g71
sbasbsg65
g16
sg69
g168
sbasbasbsg25
(lp191
g156
asbsbag140
asbsg65
g68
sg69
g71
sbag63
ag189
asbsbasbsg65
g16
sg69
g22
sbasbag135
asbag163
ag110
ag0
(g1
tp192
Rp193
(dp194
g12
g68
sg5
S'liability'
p195
sg18
g3
sg7
(lp196
g0
(g20
tp197
Rp198
(dp199
g12
g68
sg5
S'loan'
p200
sg18
g193
sS'entries'
p201
(lp202
sbasbag71
asb.