cpersistence._persistence
simple_new
p1
(cmagot.model
Account
p2
tRp3
(dp4
S'name'
p5
S'root'
p6
sS'subAccounts'
p7
(lp8
g1
(cmagot.model
EntryAccount
p9
tRp10
(dp11
S'type'
p12
cmagot.refdata
MovementType
p13
(S'DEBIT'
p14
tRp15
sg5
S'Assets'
p16
sS'parent'
p17
g3
sg7
(lp18
g1
(g9
tRp19
(dp20
g12
g15
sg5
S'Current assets'
p21
sg17
g10
sg7
(lp22
g1
(g9
tRp23
(dp24
g12
g15
sg5
S'Cash'
p25
sg17
g19
sS'entries'
p26
(lp27
g1
(cmagot.model
Entry
p28
tRp29
(dp30
S'amount'
p31
ccopy_reg
_reconstructor
p32
(cmagot.refdata
Money
p33
c__builtin__
object
p34
NtRp35
(dp36
S'currency'
p37
cmagot.refdata
Currency
p38
(S'EUR'
p39
tRp40
sS'amount'
p41
cdecimal
Decimal
p42
(S'500000'
tRp43
sbsS'transaction'
p44
g1
(cmagot.model
Transaction
p45
tRp46
(dp47
S'date'
p48
cmagot.refdata
Date
p49
(S'\x07\xd5\x02\x01'
tRp50
sS'description'
p51
S'initial balance'
p52
sS'entries'
p53
(lp54
g29
ag1
(g28
tRp55
(dp56
g31
g35
sg44
g46
sS'type'
p57
g13
(S'CREDIT'
p58
tRp59
sS'account'
p60
g1
(g9
tRp61
(dp62
g12
g59
sg5
S'Capital'
p63
sg17
g1
(g9
tRp64
(dp65
g12
g59
sg5
S"Owners' Equity"
p66
sg17
g3
sg7
(lp67
g61
ag1
(g9
tRp68
(dp69
g12
g59
sg5
S'Retained Earnings'
p70
sg17
g64
sbasbsg26
(lp71
g55
ag1
(g28
tRp72
(dp73
g31
g32
(g33
g34
NtRp74
(dp75
g37
g40
sg41
g42
(S'1000000'
tRp76
sbsg44
g1
(g45
tRp77
(dp78
g48
g49
(S'\x07\xd5\x02\x01'
tRp79
sg51
g52
sg53
(lp80
g1
(g28
tRp81
(dp82
g31
g74
sg44
g77
sg57
g15
sg60
g1
(g9
tRp83
(dp84
g12
g15
sg5
S'T-Bills'
p85
sg17
g19
sg26
(lp86
g81
asbsbag72
asbsg57
g59
sg60
g61
sbag1
(g28
tRp87
(dp88
g31
g32
(g33
g34
NtRp89
(dp90
g37
g40
sg41
g42
(S'7000000'
tRp91
sbsg44
g1
(g45
tRp92
(dp93
g48
g49
(S'\x07\xd5\x02\x01'
tRp94
sg51
g52
sg53
(lp95
g1
(g28
tRp96
(dp97
g31
g89
sg44
g92
sg57
g15
sg60
g1
(g9
tRp98
(dp99
g12
g15
sg5
S'Accounts Receivable'
p100
sg17
g19
sg26
(lp101
g96
asbsbag87
asbsg57
g59
sg60
g61
sbag1
(g28
tRp102
(dp103
g31
g32
(g33
g34
NtRp104
(dp105
g37
g40
sg41
g42
(S'825000'
tRp106
sbsg44
g1
(g45
tRp107
(dp108
g48
g49
(S'\x07\xd5\x02\x01'
tRp109
sg51
g52
sg53
(lp110
g1
(g28
tRp111
(dp112
g31
g104
sg44
g107
sg57
g15
sg60
g1
(g9
tRp113
(dp114
g12
g15
sg5
S'Raw Materials'
p115
sg17
g1
(g9
tRp116
(dp117
g12
g15
sg5
S'Inventory'
p118
sg17
g10
sg7
(lp119
g113
ag1
(g9
tRp120
(dp121
g12
g15
sg5
S'Work-in-progress'
p122
sg17
g116
sg26
(lp123
g1
(g28
tRp124
(dp125
g31
g32
(g33
g34
NtRp126
(dp127
g37
g40
sg41
g42
(S'750000'
tRp128
sbsg44
g1
(g45
tRp129
(dp130
g48
g49
(S'\x07\xd5\x02\x01'
tRp131
sg51
g52
sg53
(lp132
g124
ag1
(g28
tRp133
(dp134
g31
g126
sg44
g129
sg57
g59
sg60
g61
sbasbsg57
g15
sg60
g120
sbasbag1
(g9
tRp135
(dp136
g12
g15
sg5
S'Finished Goods'
p137
sg17
g116
sg26
(lp138
g1
(g28
tRp139
(dp140
g31
g32
(g33
g34
NtRp141
(dp142
g37
g40
sg41
g42
(S'1200000'
tRp143
sbsg44
g1
(g45
tRp144
(dp145
g48
g49
(S'\x07\xd5\x02\x01'
tRp146
sg51
g52
sg53
(lp147
g139
ag1
(g28
tRp148
(dp149
g31
g141
sg44
g144
sg57
g59
sg60
g61
sbasbsg57
g15
sg60
g135
sbasbasbsg26
(lp150
g111
asbsbag102
asbsg57
g59
sg60
g61
sbag133
ag148
ag1
(g28
tRp151
(dp152
g31
g32
(g33
g34
NtRp153
(dp154
g37
g40
sg41
g42
(S'30000000'
tRp155
sbsg44
g1
(g45
tRp156
(dp157
g48
g49
(S'\x07\xd5\x02\x01'
tRp158
sg51
g52
sg53
(lp159
g1
(g28
tRp160
(dp161
g31
g153
sg44
g156
sg57
g15
sg60
g1
(g9
tRp162
(dp163
g12
g15
sg5
S'Land'
p164
sg17
g1
(g9
tRp165
(dp166
g12
g15
sg5
S'Long-Term assets'
p167
sg17
g10
sg7
(lp168
g162
ag1
(g9
tRp169
(dp170
g12
g15
sg5
S'Machinery'
p171
sg17
g165
sg26
(lp172
g1
(g28
tRp173
(dp174
g31
g32
(g33
g34
NtRp175
(dp176
g37
g40
sg41
g42
(S'20000000'
tRp177
sbsg44
g1
(g45
tRp178
(dp179
g48
g49
(S'\x07\xd5\x02\x01'
tRp180
sg51
g52
sg53
(lp181
g173
ag1
(g28
tRp182
(dp183
g31
g175
sg44
g178
sg57
g59
sg60
g61
sbasbsg57
g15
sg60
g169
sbasbag1
(g9
tRp184
(dp185
g12
g59
sg5
S'Depreciation'
p186
sg17
g165
sg26
(lp187
g1
(g28
tRp188
(dp189
g31
g32
(g33
g34
NtRp190
(dp191
g37
g40
sg41
g42
(S'5000000'
tRp192
sbsg44
g1
(g45
tRp193
(dp194
g48
g49
(S'\x07\xd5\x02\x01'
tRp195
sg51
g52
sg53
(lp196
g1
(g28
tRp197
(dp198
g31
g190
sg44
g193
sg57
g15
sg60
g61
sbag188
asbsg57
g59
sg60
g184
sbasbag1
(g9
tRp199
(dp200
g12
g15
sg5
S'Patents'
p201
sg17
g165
sg26
(lp202
g1
(g28
tRp203
(dp204
g31
g32
(g33
g34
NtRp205
(dp206
g37
g40
sg41
g42
(S'1000000'
tRp207
sbsg44
g1
(g45
tRp208
(dp209
g48
g49
(S'\x07\xd5\x02\x01'
tRp210
sg51
g52
sg53
(lp211
g203
ag1
(g28
tRp212
(dp213
g31
g205
sg44
g208
sg57
g59
sg60
g61
sbasbsg57
g15
sg60
g199
sbasbasbsg26
(lp214
g160
asbsbag151
asbsg57
g59
sg60
g61
sbag182
ag197
ag212
asbsbasbsg57
g15
sg60
g23
sbasbag83
ag98
asbag116
ag165
asbag1
(g9
tRp215
(dp216
g12
g15
sg5
S'Expenses'
p217
sg17
g3
sg7
(lp218
g1
(g9
tRp219
(dp220
g12
g15
sg5
S'Warranty'
p221
sg17
g215
sbasbag1
(g9
tRp222
(dp223
g12
g59
sg5
S"Liabilitie and Owners' Equity"
p224
sg17
g3
sg7
(lp225
g1
(g9
tRp226
(dp227
g12
g59
sg5
S'Short-Term liabilities'
p228
sg17
g222
sg7
(lp229
g1
(g9
tRp230
(dp231
g12
g59
sg5
S'Accounts Payable'
p232
sg17
g226
sbag1
(g9
tRp233
(dp234
g12
g59
sg5
S'Dividend Payable'
p235
sg17
g226
sbag1
(g9
tRp236
(dp237
g12
g59
sg5
S'Taxes Payable'
p238
sg17
g226
sbasbag1
(g9
tRp239
(dp240
g12
g59
sg5
S'Long-Term liabilities'
p241
sg17
g222
sg7
(lp242
g1
(g9
tRp243
(dp244
g12
g59
sg5
S'Bank Loans'
p245
sg17
g239
sbasbasbag64
ag1
(g9
tRp246
(dp247
g12
g59
sg5
S'Income'
p248
sg17
g3
sg7
(lp249
g1
(g9
tRp250
(dp251
g12
g59
sg5
S'Salaries'
p252
sg17
g246
sbasbasb.