cpersistence._persistence
simple_new
p1
(cmagot.model
Account
p2
tRp3
(dp4
S'name'
p5
S'root'
p6
sS'subAccounts'
p7
(lp8
g1
(cmagot.model
EntryAccount
p9
tRp10
(dp11
g5
S'equity'
p12
sS'type'
p13
cmagot.refdata
MovementType
p14
(S'CREDIT'
p15
tRp16
sS'description'
p17
S''
sS'parent'
p18
g3
sS'entries'
p19
(lp20
g1
(cmagot.model
Entry
p21
tRp22
(dp23
S'amount'
p24
ccopy_reg
_reconstructor
p25
(cmagot.refdata
Money
p26
c__builtin__
object
p27
NtRp28
(dp29
S'currency'
p30
cmagot.refdata
Currency
p31
(S'EUR'
p32
tRp33
sS'amount'
p34
cdecimal
Decimal
p35
(S'2'
tRp36
sbsS'transaction'
p37
g1
(cmagot.model
Transaction
p38
tRp39
(dp40
S'date'
p41
cmagot.refdata
Date
p42
(S'\x07\xd5\x01\x01'
tRp43
sS'entries'
p44
(lp45
g1
(g21
tRp46
(dp47
g24
g28
sg37
g39
sS'type'
p48
g14
(S'DEBIT'
p49
tRp50
sS'account'
p51
g1
(g9
tRp52
(dp53
g5
S'computer'
p54
sg13
g50
sg17
S''
sg18
g1
(g9
tRp55
(dp56
g5
S'asset'
p57
sg13
g50
sg17
S''
sg18
g3
sg7
(lp58
g1
(g9
tRp59
(dp60
g5
S'checking'
p61
sg13
g50
sg17
S''
sg18
g55
sg19
(lp62
g1
(g21
tRp63
(dp64
g24
g25
(g26
g27
NtRp65
(dp66
g30
g33
sg34
g35
(S'1'
tRp67
sbsg37
g1
(g38
tRp68
(dp69
g41
g42
(S'\x07\xd5\x02\x01'
tRp70
sg44
(lp71
g63
ag1
(g21
tRp72
(dp73
g24
g65
sg37
g68
sg48
g16
sg51
g10
sbasS'number'
p74
V3
sS'description'
p75
Vzzz
p76
sbsg48
g50
sg51
g59
sbasbag52
asbsg19
(lp77
g46
asbsbag22
asg74
V 
sg75
Vbbb
p78
sbsg48
g16
sg51
g10
sbag1
(g21
tRp79
(dp80
g24
g25
(g26
g27
NtRp81
(dp82
g30
g33
sg34
g35
(S'3'
tRp83
sbsg37
g1
(g38
tRp84
(dp85
g41
g42
(S'\x07\xd5\x01\x01'
tRp86
sg44
(lp87
g1
(g21
tRp88
(dp89
g24
g81
sg37
g84
sg48
g50
sg51
g1
(g9
tRp90
(dp91
g5
S'warranty'
p92
sg13
g50
sg17
S''
sg18
g1
(g9
tRp93
(dp94
g5
S'expense'
p95
sg13
g50
sg17
S''
sg18
g3
sg7
(lp96
g90
ag1
(g9
tRp97
(dp98
g5
S'cash'
p99
sg13
g50
sg17
S''
sg18
g93
sg19
(lp100
g1
(g21
tRp101
(dp102
g24
g25
(g26
g27
NtRp103
(dp104
g30
g33
sg34
g35
(S'4'
tRp105
sbsg37
g1
(g38
tRp106
(dp107
g41
g42
(S'\x07\xd5\x02\x01'
tRp108
sg44
(lp109
g101
ag1
(g21
tRp110
(dp111
g24
g103
sg37
g106
sg48
g16
sg51
g10
sbasg74
V4
sg75
Vaaa
p112
sbsg48
g50
sg51
g97
sbasbasbsg19
(lp113
g88
asbsbag79
asg74
V1
sg75
Vccc
p114
sbsg48
g16
sg51
g10
sbag1
(g21
tRp115
(dp116
g24
g25
(g26
g27
NtRp117
(dp118
g30
g33
sg34
g35
(S'100.5'
tRp119
sbsg37
g1
(g38
tRp120
(dp121
g41
g42
(S'\x07\xd5\x01\x01'
tRp122
sg44
(lp123
g115
ag1
(g21
tRp124
(dp125
g24
g117
sg37
g120
sg48
g16
sg51
g1
(g9
tRp126
(dp127
g5
S'salary'
p128
sg13
g16
sg17
S''
sg18
g1
(g9
tRp129
(dp130
g5
S'income'
p131
sg13
g16
sg17
S''
sg18
g3
sg7
(lp132
g126
asbsg19
(lp133
g124
asbsbasg74
V2
sg75
Vfff
p134
sbsg48
g50
sg51
g10
sbag72
ag110
asbag55
ag93
ag129
ag1
(g9
tRp135
(dp136
g5
S'liability'
p137
sg13
g16
sg17
S''
sg18
g3
sg7
(lp138
g1
(g9
tRp139
(dp140
g13
g16
sg17
S''
sg18
g135
sg5
S'loan'
p141
sbasbasb.