cpersistence._persistence
simple_new
p1
(cmagot.model
DetailAccount
p2
tRp3
(dp4
S'name'
p5
S'root'
p6
sS'subAccounts'
p7
(lp8
g1
(g2
tRp9
(dp10
S'type'
p11
cmagot.refdata
MovementType
p12
(S'DEBIT'
p13
tRp14
sg5
S'asset'
p15
sS'parent'
p16
g3
sg7
(lp17
g1
(g2
tRp18
(dp19
g11
g14
sg5
S'checking'
p20
sg16
g9
sS'entries'
p21
(lp22
g1
(cmagot.model
Entry
p23
tRp24
(dp25
S'amount'
p26
ccopy_reg
_reconstructor
p27
(cmagot.refdata
Money
p28
c__builtin__
object
p29
NtRp30
(dp31
S'currency'
p32
cmagot.refdata
Currency
p33
(S'EUR'
p34
tRp35
sS'amount'
p36
cdecimal
Decimal
p37
(S'1'
tRp38
sbsS'transaction'
p39
g1
(cmagot.model
Transaction
p40
tRp41
(dp42
S'date'
p43
cdatetime
date
p44
(S'\x07\xd5\x02\x01'
tRp45
sS'entries'
p46
(lp47
g24
ag1
(g23
tRp48
(dp49
g26
g30
sg39
g41
sS'type'
p50
g12
(S'CREDIT'
p51
tRp52
sS'account'
p53
g1
(g2
tRp54
(dp55
g11
g52
sg5
S'equity'
p56
sg16
g3
sg21
(lp57
g1
(g23
tRp58
(dp59
g26
g27
(g28
g29
NtRp60
(dp61
g32
g35
sg36
g37
(S'3'
tRp62
sbsg39
g1
(g40
tRp63
(dp64
g43
g44
(S'\x07\xd5\x01\x01'
tRp65
sg46
(lp66
g1
(g23
tRp67
(dp68
g26
g60
sg39
g63
sg50
g14
sg53
g1
(g2
tRp69
(dp70
g11
g14
sg5
S'warranty'
p71
sg16
g1
(g2
tRp72
(dp73
g11
g14
sg5
S'expense'
p74
sg16
g3
sg7
(lp75
g69
ag1
(g2
tRp76
(dp77
g11
g14
sg5
S'cash'
p78
sg16
g72
sg21
(lp79
g1
(g23
tRp80
(dp81
g26
g27
(g28
g29
NtRp82
(dp83
g32
g35
sg36
g37
(S'4'
tRp84
sbsg39
g1
(g40
tRp85
(dp86
g43
g44
(S'\x07\xd5\x02\x01'
tRp87
sg46
(lp88
g80
ag1
(g23
tRp89
(dp90
g26
g82
sg39
g85
sg50
g52
sg53
g54
sbasS'description'
p91
Vddd
p92
sS'number'
p93
I3
sbsg50
g14
sg53
g76
sbasbasbsg21
(lp94
g67
asbsbag58
asg91
Vccc
p95
sS'number'
p96
I1
sbsg50
g52
sg53
g54
sbag48
ag89
ag1
(g23
tRp97
(dp98
g26
g27
(g28
g29
NtRp99
(dp100
g32
g35
sg36
g37
(S'2'
tRp101
sbsg39
g1
(g40
tRp102
(dp103
S'date'
p104
g44
(S'\x07\xd5\x02\x01'
tRp105
sg91
Vzzz
p106
sg93
I4
sg46
(lp107
g1
(g23
tRp108
(dp109
g26
g99
sg39
g102
sg50
g14
sS'account'
p110
g1
(g2
tRp111
(dp112
g11
g14
sg5
S'computer'
p113
sg16
g9
sg21
(lp114
g108
asbsbag97
asbsg50
g52
sg110
g54
sbag1
(g23
tRp115
(dp116
g26
g27
(g28
g29
NtRp117
(dp118
g32
g35
sg36
g37
(S'100.5'
tRp119
sbsg39
g1
(g40
tRp120
(dp121
S'date'
p122
g44
(S'\x07\xd5\x02\x01'
tRp123
sg46
(lp124
g115
ag1
(g23
tRp125
(dp126
g26
g117
sg39
g120
sg50
g52
sS'account'
p127
g1
(g2
tRp128
(dp129
g11
g52
sg5
S'salary'
p130
sg16
g1
(g2
tRp131
(dp132
g11
g52
sg5
S'income'
p133
sg16
g3
sg7
(lp134
g128
asbsg21
(lp135
g125
asbsbasg91
Vbbb
p136
sg93
I5
sbsg50
g14
sg127
g54
sbasbsbasg91
Vaaa
p137
sg93
I2
sbsg50
g14
sg53
g18
sbasbag111
asbag72
ag131
ag1
(g2
tRp138
(dp139
g11
g52
sg5
S'liability'
p140
sg16
g3
sg7
(lp141
g1
(g2
tRp142
(dp143
g11
g52
sg5
S'loan'
p144
sg16
g138
sbasbag54
asb.